	.file	"gradesTemp.c"
	.text
.Ltext0:
	.comm	aGrades,4400,64
	.comm	bGrades,4400,64
	.comm	retBufferArea,5120,64
	.comm	retBuffer,8,8
	.comm	txtFile,8,8
	.section	.rodata
.LC0:
	.string	"mprotect failed"
.LC1:
	.string	"Choose section A or B: "
	.align 8
.LC2:
	.string	"Unable to determine which section you wanted."
	.text
	.globl	main
	.type	main, @function
main:
.LFB2:
	.file 1 "gradesTemp.c"
	.loc 1 24 0
	.cfi_startproc
	pushq	%rbp
	.cfi_def_cfa_offset 16
	.cfi_offset 6, -16
	movq	%rsp, %rbp
	.cfi_def_cfa_register 6
	subq	$48, %rsp
	movl	%edi, -36(%rbp)
	movq	%rsi, -48(%rbp)
	.loc 1 28 0
	movl	$30, %edi
	call	sysconf
	movq	%rax, -8(%rbp)
	.loc 1 29 0
	movq	stdout(%rip), %rax
	movl	$0, %esi
	movq	%rax, %rdi
	call	setbuf
	.loc 1 30 0
	movl	$retBufferArea, %eax
	leaq	-1(%rax), %rdx
	movq	-8(%rbp), %rax
	addq	%rax, %rdx
	movq	-8(%rbp), %rax
	negq	%rax
	andq	%rdx, %rax
	movq	%rax, retBuffer(%rip)
	.loc 1 31 0
	movq	retBuffer(%rip), %rax
	movl	$7, %edx
	movl	$1024, %esi
	movq	%rax, %rdi
	call	mprotect
	testl	%eax, %eax
	je	.L2
	.loc 1 32 0
	movl	$.LC0, %edi
	call	puts
	.loc 1 33 0
	movl	$1, %eax
	jmp	.L9
.L2:
	.loc 1 35 0
	cmpl	$1, -36(%rbp)
	jne	.L4
	.loc 1 35 0 is_stmt 0 discriminator 1
	leaq	-32(%rbp), %rax
	movq	%rax, %rdi
	call	time
	movl	%eax, %edi
	call	srand
	jmp	.L5
.L4:
.LBB2:
	.loc 1 37 0 is_stmt 1
	movq	-48(%rbp), %rax
	addq	$8, %rax
	movq	(%rax), %rax
	movq	%rax, %rdi
	call	atoi
	movl	%eax, -12(%rbp)
	.loc 1 38 0
	movl	-12(%rbp), %eax
	movl	%eax, %edi
	call	srand
.L5:
.LBE2:
	.loc 1 40 0
	movl	$36, %esi
	movl	$aGrades, %edi
	call	getGrades
	.loc 1 41 0
	movl	$54, %esi
	movl	$bGrades, %edi
	call	getGrades
	.loc 1 42 0
	movl	$36, %esi
	movl	$aGrades, %edi
	call	getAvg
	.loc 1 43 0
	movl	$54, %esi
	movl	$bGrades, %edi
	call	getAvg
	.loc 1 44 0
	movl	$bGrades, %edi
	call	changeGrade
	.loc 1 46 0
	movl	$.LC1, %edi
	movl	$0, %eax
	call	printf
	.loc 1 47 0
	movl	$0, %eax
	call	getUserLine
	movq	%rax, -24(%rbp)
	.loc 1 48 0
	movl	$10, %edi
	call	putchar
	.loc 1 51 0
	movq	-24(%rbp), %rax
	movzbl	(%rax), %eax
	cmpb	$65, %al
	jne	.L6
	.loc 1 52 0
	movl	$100, %edx
	movl	$36, %esi
	movl	$aGrades, %edi
	call	printGrades
	jmp	.L7
.L6:
	.loc 1 53 0
	movq	-24(%rbp), %rax
	movzbl	(%rax), %eax
	cmpb	$66, %al
	jne	.L8
	.loc 1 54 0
	movl	$200, %edx
	movl	$54, %esi
	movl	$bGrades, %edi
	call	printGrades
	jmp	.L7
.L8:
	.loc 1 56 0
	movl	$.LC2, %edi
	call	puts
.L7:
	.loc 1 59 0
	movl	$0, %edi
	call	exit
.L9:
	.loc 1 60 0
	leave
	.cfi_def_cfa 7, 8
	ret
	.cfi_endproc
.LFE2:
	.size	main, .-main
	.globl	changeGrade
	.type	changeGrade, @function
changeGrade:
.LFB3:
	.loc 1 61 0
	.cfi_startproc
	pushq	%rbp
	.cfi_def_cfa_offset 16
	.cfi_offset 6, -16
	movq	%rsp, %rbp
	.cfi_def_cfa_register 6
	movq	%rdi, -24(%rbp)
	.loc 1 62 0
	movl	$0, -4(%rbp)
	.loc 1 63 0
	movl	$11, -8(%rbp)
	.loc 1 64 0
	jmp	.L11
.L15:
	.loc 1 65 0
	cmpl	$3, -4(%rbp)
	jle	.L12
	.loc 1 65 0 is_stmt 0 discriminator 2
	cmpl	$7, -4(%rbp)
	jle	.L13
.L12:
	.loc 1 65 0 discriminator 3
	movl	-4(%rbp), %eax
	movslq	%eax, %rdx
	movq	%rdx, %rax
	salq	$2, %rax
	addq	%rdx, %rax
	leaq	0(,%rax,4), %rdx
	addq	%rdx, %rax
	salq	$4, %rax
	movq	%rax, %rdx
	movq	-24(%rbp), %rax
	addq	%rdx, %rax
	movl	$100, 144(%rax)
	jmp	.L14
.L13:
	.loc 1 67 0 is_stmt 1
	movl	-4(%rbp), %eax
	movslq	%eax, %rdx
	movq	%rdx, %rax
	salq	$2, %rax
	addq	%rdx, %rax
	leaq	0(,%rax,4), %rdx
	addq	%rdx, %rax
	salq	$4, %rax
	movq	%rax, %rdx
	movq	-24(%rbp), %rax
	addq	%rdx, %rax
	movl	-8(%rbp), %edx
	subl	$1, %edx
	movl	%edx, 144(%rax)
.L14:
	.loc 1 69 0
	addl	$1, -4(%rbp)
.L11:
	.loc 1 64 0
	cmpl	$10, -4(%rbp)
	jle	.L15
	.loc 1 71 0
	popq	%rbp
	.cfi_def_cfa 7, 8
	ret
	.cfi_endproc
.LFE3:
	.size	changeGrade, .-changeGrade
	.globl	getGrades
	.type	getGrades, @function
getGrades:
.LFB4:
	.loc 1 73 0
	.cfi_startproc
	pushq	%rbp
	.cfi_def_cfa_offset 16
	.cfi_offset 6, -16
	movq	%rsp, %rbp
	.cfi_def_cfa_register 6
	pushq	%rbx
	subq	$40, %rsp
	.cfi_offset 3, -24
	movq	%rdi, -40(%rbp)
	movl	%esi, -44(%rbp)
	.loc 1 75 0
	movl	$0, -20(%rbp)
	jmp	.L17
.L18:
	.loc 1 76 0 discriminator 3
	call	rand
	movl	%eax, %ecx
	movl	$-1600085855, %edx
	movl	%ecx, %eax
	imull	%edx
	leal	(%rdx,%rcx), %eax
	sarl	$5, %eax
	movl	%eax, %edx
	movl	%ecx, %eax
	sarl	$31, %eax
	subl	%eax, %edx
	movl	%edx, %eax
	imull	$51, %eax, %eax
	subl	%eax, %ecx
	movl	%ecx, %eax
	leal	40(%rax), %ecx
	movq	-40(%rbp), %rax
	movl	-20(%rbp), %edx
	movslq	%edx, %rdx
	movl	%ecx, (%rax,%rdx,4)
	.loc 1 77 0 discriminator 3
	movq	-40(%rbp), %rax
	leaq	400(%rax), %rbx
	call	rand
	movl	%eax, %ecx
	movl	$-1600085855, %edx
	movl	%ecx, %eax
	imull	%edx
	leal	(%rdx,%rcx), %eax
	sarl	$5, %eax
	movl	%eax, %edx
	movl	%ecx, %eax
	sarl	$31, %eax
	subl	%eax, %edx
	movl	%edx, %eax
	imull	$51, %eax, %eax
	subl	%eax, %ecx
	movl	%ecx, %eax
	leal	30(%rax), %edx
	movl	-20(%rbp), %eax
	cltq
	movl	%edx, (%rbx,%rax,4)
	.loc 1 78 0 discriminator 3
	movq	-40(%rbp), %rax
	leaq	800(%rax), %rbx
	call	rand
	movl	%eax, %ecx
	movl	$-2078209981, %edx
	movl	%ecx, %eax
	imull	%edx
	leal	(%rdx,%rcx), %eax
	sarl	$4, %eax
	movl	%eax, %edx
	movl	%ecx, %eax
	sarl	$31, %eax
	subl	%eax, %edx
	movl	%edx, %eax
	movl	%eax, %edx
	sall	$5, %edx
	subl	%eax, %edx
	movl	%ecx, %eax
	subl	%edx, %eax
	leal	60(%rax), %edx
	movl	-20(%rbp), %eax
	cltq
	movl	%edx, (%rbx,%rax,4)
	.loc 1 79 0 discriminator 3
	movq	-40(%rbp), %rax
	leaq	1200(%rax), %rbx
	call	rand
	movl	%eax, %ecx
	movl	$680390859, %edx
	movl	%ecx, %eax
	imull	%edx
	sarl	$4, %edx
	movl	%ecx, %eax
	sarl	$31, %eax
	subl	%eax, %edx
	movl	%edx, %eax
	imull	$101, %eax, %eax
	subl	%eax, %ecx
	movl	%ecx, %eax
	movl	-20(%rbp), %edx
	movslq	%edx, %rdx
	movl	%eax, (%rbx,%rdx,4)
	.loc 1 80 0 discriminator 3
	movq	-40(%rbp), %rax
	leaq	1600(%rax), %rbx
	call	rand
	movl	%eax, %ecx
	movl	$1717986919, %edx
	movl	%ecx, %eax
	imull	%edx
	sarl	$2, %edx
	movl	%ecx, %eax
	sarl	$31, %eax
	subl	%eax, %edx
	movl	%edx, %eax
	sall	$2, %eax
	addl	%edx, %eax
	addl	%eax, %eax
	subl	%eax, %ecx
	movl	%ecx, %edx
	movl	-20(%rbp), %eax
	cltq
	movl	%edx, (%rbx,%rax,4)
	.loc 1 81 0 discriminator 3
	movq	-40(%rbp), %rax
	leaq	2000(%rax), %rbx
	call	rand
	movl	%eax, %ecx
	movl	$1717986919, %edx
	movl	%ecx, %eax
	imull	%edx
	sarl	$2, %edx
	movl	%ecx, %eax
	sarl	$31, %eax
	subl	%eax, %edx
	movl	%edx, %eax
	sall	$2, %eax
	addl	%edx, %eax
	addl	%eax, %eax
	subl	%eax, %ecx
	movl	%ecx, %edx
	movl	-20(%rbp), %eax
	cltq
	movl	%edx, (%rbx,%rax,4)
	.loc 1 82 0 discriminator 3
	movq	-40(%rbp), %rax
	leaq	2400(%rax), %rbx
	call	rand
	movl	%eax, %ecx
	movl	$1717986919, %edx
	movl	%ecx, %eax
	imull	%edx
	sarl	$2, %edx
	movl	%ecx, %eax
	sarl	$31, %eax
	subl	%eax, %edx
	movl	%edx, %eax
	sall	$2, %eax
	addl	%edx, %eax
	addl	%eax, %eax
	subl	%eax, %ecx
	movl	%ecx, %edx
	movl	-20(%rbp), %eax
	cltq
	movl	%edx, (%rbx,%rax,4)
	.loc 1 83 0 discriminator 3
	movq	-40(%rbp), %rax
	leaq	2800(%rax), %rbx
	call	rand
	movl	%eax, %ecx
	movl	$1717986919, %edx
	movl	%ecx, %eax
	imull	%edx
	sarl	$2, %edx
	movl	%ecx, %eax
	sarl	$31, %eax
	subl	%eax, %edx
	movl	%edx, %eax
	sall	$2, %eax
	addl	%edx, %eax
	addl	%eax, %eax
	subl	%eax, %ecx
	movl	%ecx, %edx
	movl	-20(%rbp), %eax
	cltq
	movl	%edx, (%rbx,%rax,4)
	.loc 1 84 0 discriminator 3
	movq	-40(%rbp), %rax
	leaq	3200(%rax), %rbx
	call	rand
	movl	%eax, %ecx
	movl	$1041204193, %edx
	movl	%ecx, %eax
	imull	%edx
	sarl	$4, %edx
	movl	%ecx, %eax
	sarl	$31, %eax
	subl	%eax, %edx
	movl	%edx, %eax
	addl	%eax, %eax
	movl	%eax, %edx
	sall	$5, %edx
	addl	%edx, %eax
	subl	%eax, %ecx
	movl	%ecx, %eax
	leal	30(%rax), %edx
	movl	-20(%rbp), %eax
	cltq
	movl	%edx, (%rbx,%rax,4)
	.loc 1 85 0 discriminator 3
	movq	-40(%rbp), %rax
	leaq	3600(%rax), %rbx
	call	rand
	movl	%eax, %ecx
	movl	$-1840700269, %edx
	movl	%ecx, %eax
	imull	%edx
	leal	(%rdx,%rcx), %eax
	sarl	$5, %eax
	movl	%eax, %edx
	movl	%ecx, %eax
	sarl	$31, %eax
	subl	%eax, %edx
	movl	%edx, %eax
	movl	%eax, %edx
	leal	0(,%rdx,8), %eax
	movl	%eax, %edx
	leal	0(,%rdx,8), %eax
	subl	%edx, %eax
	subl	%eax, %ecx
	movl	%ecx, %eax
	leal	40(%rax), %edx
	movl	-20(%rbp), %eax
	cltq
	movl	%edx, (%rbx,%rax,4)
	.loc 1 75 0 discriminator 3
	addl	$1, -20(%rbp)
.L17:
	.loc 1 75 0 is_stmt 0 discriminator 1
	movl	-20(%rbp), %eax
	cmpl	-44(%rbp), %eax
	jl	.L18
	.loc 1 87 0 is_stmt 1
	addq	$40, %rsp
	popq	%rbx
	popq	%rbp
	.cfi_def_cfa 7, 8
	ret
	.cfi_endproc
.LFE4:
	.size	getGrades, .-getGrades
	.globl	getAvg
	.type	getAvg, @function
getAvg:
.LFB5:
	.loc 1 89 0
	.cfi_startproc
	pushq	%rbp
	.cfi_def_cfa_offset 16
	.cfi_offset 6, -16
	movq	%rsp, %rbp
	.cfi_def_cfa_register 6
	movq	%rdi, -40(%rbp)
	movl	%esi, -44(%rbp)
	.loc 1 95 0
	movl	$0, -4(%rbp)
	jmp	.L20
.L25:
	.loc 1 96 0
	movl	$101, -8(%rbp)
	.loc 1 97 0
	movq	-40(%rbp), %rax
	movl	-4(%rbp), %edx
	movslq	%edx, %rdx
	movl	(%rax,%rdx,4), %eax
	cmpl	-8(%rbp), %eax
	jge	.L21
	.loc 1 97 0 is_stmt 0 discriminator 1
	movq	-40(%rbp), %rax
	movl	-4(%rbp), %edx
	movslq	%edx, %rdx
	movl	(%rax,%rdx,4), %eax
	movl	%eax, -8(%rbp)
.L21:
	.loc 1 98 0 is_stmt 1
	movq	-40(%rbp), %rax
	leaq	400(%rax), %rdx
	movl	-4(%rbp), %eax
	cltq
	movl	(%rdx,%rax,4), %eax
	cmpl	-8(%rbp), %eax
	jge	.L22
	.loc 1 98 0 is_stmt 0 discriminator 1
	movq	-40(%rbp), %rax
	leaq	400(%rax), %rdx
	movl	-4(%rbp), %eax
	cltq
	movl	(%rdx,%rax,4), %eax
	movl	%eax, -8(%rbp)
.L22:
	.loc 1 99 0 is_stmt 1
	movq	-40(%rbp), %rax
	leaq	800(%rax), %rdx
	movl	-4(%rbp), %eax
	cltq
	movl	(%rdx,%rax,4), %eax
	cmpl	-8(%rbp), %eax
	jge	.L23
	.loc 1 99 0 is_stmt 0 discriminator 1
	movq	-40(%rbp), %rax
	leaq	800(%rax), %rdx
	movl	-4(%rbp), %eax
	cltq
	movl	(%rdx,%rax,4), %eax
	movl	%eax, -8(%rbp)
.L23:
	.loc 1 100 0 is_stmt 1
	movq	-40(%rbp), %rax
	leaq	1200(%rax), %rdx
	movl	-4(%rbp), %eax
	cltq
	movl	(%rdx,%rax,4), %eax
	cmpl	-8(%rbp), %eax
	jge	.L24
	.loc 1 100 0 is_stmt 0 discriminator 1
	movq	-40(%rbp), %rax
	leaq	1200(%rax), %rdx
	movl	-4(%rbp), %eax
	cltq
	movl	(%rdx,%rax,4), %eax
	movl	%eax, -8(%rbp)
.L24:
	.loc 1 101 0 is_stmt 1 discriminator 2
	movq	-40(%rbp), %rax
	movl	-4(%rbp), %edx
	movslq	%edx, %rdx
	movl	(%rax,%rdx,4), %edx
	movq	-40(%rbp), %rax
	leaq	400(%rax), %rcx
	movl	-4(%rbp), %eax
	cltq
	movl	(%rcx,%rax,4), %eax
	leal	(%rdx,%rax), %ecx
	movq	-40(%rbp), %rax
	leaq	800(%rax), %rdx
	movl	-4(%rbp), %eax
	cltq
	movl	(%rdx,%rax,4), %eax
	addl	%eax, %ecx
	movq	-40(%rbp), %rax
	leaq	1200(%rax), %rdx
	movl	-4(%rbp), %eax
	cltq
	movl	(%rdx,%rax,4), %eax
	addl	%ecx, %eax
	subl	-8(%rbp), %eax
	movl	%eax, %ecx
	movl	$1431655766, %edx
	movl	%ecx, %eax
	imull	%edx
	movl	%ecx, %eax
	sarl	$31, %eax
	subl	%eax, %edx
	movl	%edx, %eax
	movl	%eax, -12(%rbp)
	.loc 1 102 0 discriminator 2
	movq	-40(%rbp), %rax
	leaq	1600(%rax), %rdx
	movl	-4(%rbp), %eax
	cltq
	movl	(%rdx,%rax,4), %edx
	movq	-40(%rbp), %rax
	leaq	2000(%rax), %rcx
	movl	-4(%rbp), %eax
	cltq
	movl	(%rcx,%rax,4), %eax
	leal	(%rdx,%rax), %ecx
	movq	-40(%rbp), %rax
	leaq	2400(%rax), %rdx
	movl	-4(%rbp), %eax
	cltq
	movl	(%rdx,%rax,4), %eax
	addl	%eax, %ecx
	movq	-40(%rbp), %rax
	leaq	2800(%rax), %rdx
	movl	-4(%rbp), %eax
	cltq
	movl	(%rdx,%rax,4), %eax
	leal	(%rcx,%rax), %edx
	movl	%edx, %eax
	sall	$2, %eax
	addl	%edx, %eax
	addl	%eax, %eax
	leal	3(%rax), %edx
	testl	%eax, %eax
	cmovs	%edx, %eax
	sarl	$2, %eax
	movl	%eax, -16(%rbp)
	.loc 1 103 0 discriminator 2
	movq	-40(%rbp), %rax
	leaq	3200(%rax), %rdx
	movl	-4(%rbp), %eax
	cltq
	movl	(%rdx,%rax,4), %edx
	movq	-40(%rbp), %rax
	leaq	3600(%rax), %rcx
	movl	-4(%rbp), %eax
	cltq
	movl	(%rcx,%rax,4), %eax
	addl	%edx, %eax
	movl	%eax, %edx
	shrl	$31, %edx
	addl	%edx, %eax
	sarl	%eax
	movl	%eax, -20(%rbp)
	.loc 1 104 0 discriminator 2
	movq	-40(%rbp), %rax
	leaq	4000(%rax), %rsi
	movl	-12(%rbp), %edx
	movl	%edx, %eax
	addl	%eax, %eax
	addl	%eax, %edx
	movl	-16(%rbp), %eax
	addl	%eax, %edx
	movl	-20(%rbp), %eax
	addl	%eax, %eax
	leal	(%rdx,%rax), %ecx
	movl	$715827883, %edx
	movl	%ecx, %eax
	imull	%edx
	movl	%ecx, %eax
	sarl	$31, %eax
	subl	%eax, %edx
	movl	-4(%rbp), %eax
	cltq
	movl	%edx, (%rsi,%rax,4)
	.loc 1 95 0 discriminator 2
	addl	$1, -4(%rbp)
.L20:
	.loc 1 95 0 is_stmt 0 discriminator 1
	movl	-4(%rbp), %eax
	cmpl	-44(%rbp), %eax
	jl	.L25
	.loc 1 106 0 is_stmt 1
	popq	%rbp
	.cfi_def_cfa 7, 8
	ret
	.cfi_endproc
.LFE5:
	.size	getAvg, .-getAvg
	.globl	getUserLine
	.type	getUserLine, @function
getUserLine:
.LFB6:
	.loc 1 110 0
	.cfi_startproc
	pushq	%rbp
	.cfi_def_cfa_offset 16
	.cfi_offset 6, -16
	movq	%rsp, %rbp
	.cfi_def_cfa_register 6
	subq	$256, %rsp
	.loc 1 113 0
	leaq	-256(%rbp), %rax
	movq	%rax, %rdi
	call	gets
	testq	%rax, %rax
	je	.L27
	.loc 1 114 0
	movq	retBuffer(%rip), %rax
	movq	%rax, %rdx
	leaq	-256(%rbp), %rax
	movl	$256, %ecx
	movq	(%rax), %rsi
	movq	%rsi, (%rdx)
	leaq	8(%rdx), %rsi
	movl	%ecx, %edi
	addq	%rsi, %rdi
	leaq	8(%rax), %rsi
	movl	%ecx, %r8d
	addq	%r8, %rsi
	movq	-16(%rsi), %rsi
	movq	%rsi, -16(%rdi)
	leaq	8(%rdx), %rdi
	andq	$-8, %rdi
	subq	%rdi, %rdx
	subq	%rdx, %rax
	addl	%edx, %ecx
	andl	$-8, %ecx
	shrl	$3, %ecx
	movl	%ecx, %edx
	movl	%edx, %edx
	movq	%rax, %rsi
	movq	%rdx, %rcx
	rep movsq
	.loc 1 115 0
	movq	retBuffer(%rip), %rax
	jmp	.L29
.L27:
	.loc 1 117 0
	movl	$0, %eax
.L29:
	.loc 1 118 0 discriminator 1
	leave
	.cfi_def_cfa 7, 8
	ret
	.cfi_endproc
.LFE6:
	.size	getUserLine, .-getUserLine
	.section	.rodata
.LC3:
	.string	"P4"
.LC4:
	.string	"P3"
.LC5:
	.string	"P2"
.LC6:
	.string	"P1"
.LC7:
	.string	"SID"
	.align 8
.LC8:
	.string	" %3s | %3s | %3s | %3s | %3s | %3s | %3s | %3s | %3s | %3s | %3s || %3s |\n"
.LC9:
	.string	"Avg"
.LC10:
	.string	"T2"
.LC11:
	.string	"T1"
.LC12:
	.string	"H4"
.LC13:
	.string	"H3"
.LC14:
	.string	"H2"
.LC15:
	.string	"H1"
	.align 8
.LC16:
	.string	"-----|-----|-----|-----|-----|-----|-----|-----|-----|-----|-----||-----|"
.LC17:
	.string	"Me! %d %d\n"
	.align 8
.LC18:
	.string	" %3d | %3d | %3d | %3d | %3d | %3d | %3d | %3d | %3d | %3d | %3d || %3d |\n"
	.text
	.globl	printGrades
	.type	printGrades, @function
printGrades:
.LFB7:
	.loc 1 120 0
	.cfi_startproc
	pushq	%rbp
	.cfi_def_cfa_offset 16
	.cfi_offset 6, -16
	movq	%rsp, %rbp
	.cfi_def_cfa_register 6
	pushq	%r14
	pushq	%r13
	pushq	%r12
	pushq	%rbx
	subq	$32, %rsp
	.cfi_offset 14, -24
	.cfi_offset 13, -32
	.cfi_offset 12, -40
	.cfi_offset 3, -48
	movq	%rdi, -56(%rbp)
	movl	%esi, -60(%rbp)
	movl	%edx, -64(%rbp)
	.loc 1 122 0
	subq	$8, %rsp
	pushq	$.LC9
	pushq	$.LC10
	pushq	$.LC11
	pushq	$.LC12
	pushq	$.LC13
	pushq	$.LC14
	pushq	$.LC15
	movl	$.LC3, %r9d
	movl	$.LC4, %r8d
	movl	$.LC5, %ecx
	movl	$.LC6, %edx
	movl	$.LC7, %esi
	movl	$.LC8, %edi
	movl	$0, %eax
	call	printf
	addq	$64, %rsp
	.loc 1 124 0
	movl	$.LC16, %edi
	call	puts
	.loc 1 125 0
	movl	$0, -36(%rbp)
	jmp	.L31
.L33:
	.loc 1 126 0
	movl	-64(%rbp), %edx
	movl	-36(%rbp), %eax
	addl	%edx, %eax
	cmpl	$236, %eax
	jne	.L32
	.loc 1 126 0 is_stmt 0 discriminator 1
	movl	-36(%rbp), %edx
	movl	-64(%rbp), %eax
	movl	%eax, %esi
	movl	$.LC17, %edi
	movl	$0, %eax
	call	printf
.L32:
	.loc 1 130 0 is_stmt 1 discriminator 2
	movq	-56(%rbp), %rax
	leaq	4000(%rax), %rdx
	.loc 1 127 0 discriminator 2
	movl	-36(%rbp), %eax
	cltq
	movl	(%rdx,%rax,4), %r11d
	.loc 1 130 0 discriminator 2
	movq	-56(%rbp), %rax
	leaq	3600(%rax), %rdx
	.loc 1 127 0 discriminator 2
	movl	-36(%rbp), %eax
	cltq
	movl	(%rdx,%rax,4), %r10d
	.loc 1 130 0 discriminator 2
	movq	-56(%rbp), %rax
	leaq	3200(%rax), %rdx
	.loc 1 127 0 discriminator 2
	movl	-36(%rbp), %eax
	cltq
	movl	(%rdx,%rax,4), %r9d
	.loc 1 129 0 discriminator 2
	movq	-56(%rbp), %rax
	leaq	2800(%rax), %rdx
	.loc 1 127 0 discriminator 2
	movl	-36(%rbp), %eax
	cltq
	movl	(%rdx,%rax,4), %r8d
	.loc 1 129 0 discriminator 2
	movq	-56(%rbp), %rax
	leaq	2400(%rax), %rdx
	.loc 1 127 0 discriminator 2
	movl	-36(%rbp), %eax
	cltq
	movl	(%rdx,%rax,4), %edi
	.loc 1 129 0 discriminator 2
	movq	-56(%rbp), %rax
	leaq	2000(%rax), %rdx
	.loc 1 127 0 discriminator 2
	movl	-36(%rbp), %eax
	cltq
	movl	(%rdx,%rax,4), %esi
	.loc 1 129 0 discriminator 2
	movq	-56(%rbp), %rax
	leaq	1600(%rax), %rdx
	.loc 1 127 0 discriminator 2
	movl	-36(%rbp), %eax
	cltq
	movl	(%rdx,%rax,4), %ecx
	.loc 1 128 0 discriminator 2
	movq	-56(%rbp), %rax
	leaq	1200(%rax), %rdx
	.loc 1 127 0 discriminator 2
	movl	-36(%rbp), %eax
	cltq
	movl	(%rdx,%rax,4), %r13d
	.loc 1 128 0 discriminator 2
	movq	-56(%rbp), %rax
	leaq	800(%rax), %rdx
	.loc 1 127 0 discriminator 2
	movl	-36(%rbp), %eax
	cltq
	movl	(%rdx,%rax,4), %r12d
	.loc 1 128 0 discriminator 2
	movq	-56(%rbp), %rax
	leaq	400(%rax), %rdx
	.loc 1 127 0 discriminator 2
	movl	-36(%rbp), %eax
	cltq
	movl	(%rdx,%rax,4), %edx
	movq	-56(%rbp), %rax
	movl	-36(%rbp), %ebx
	movslq	%ebx, %rbx
	movl	(%rax,%rbx,4), %eax
	movl	-64(%rbp), %r14d
	movl	-36(%rbp), %ebx
	addl	%r14d, %ebx
	subq	$8, %rsp
	pushq	%r11
	pushq	%r10
	pushq	%r9
	pushq	%r8
	pushq	%rdi
	pushq	%rsi
	pushq	%rcx
	movl	%r13d, %r9d
	movl	%r12d, %r8d
	movl	%edx, %ecx
	movl	%eax, %edx
	movl	%ebx, %esi
	movl	$.LC18, %edi
	movl	$0, %eax
	call	printf
	addq	$64, %rsp
	.loc 1 125 0 discriminator 2
	addl	$1, -36(%rbp)
.L31:
	.loc 1 125 0 is_stmt 0 discriminator 1
	movl	-36(%rbp), %eax
	cmpl	-60(%rbp), %eax
	jl	.L33
	.loc 1 132 0 is_stmt 1
	movl	$.LC16, %edi
	call	puts
	.loc 1 133 0
	leaq	-32(%rbp), %rsp
	popq	%rbx
	popq	%r12
	popq	%r13
	popq	%r14
	popq	%rbp
	.cfi_def_cfa 7, 8
	ret
	.cfi_endproc
.LFE7:
	.size	printGrades, .-printGrades
.Letext0:
	.file 2 "/usr/lib/gcc/x86_64-linux-gnu/4.9/include/stddef.h"
	.file 3 "/usr/include/x86_64-linux-gnu/bits/types.h"
	.file 4 "/usr/include/time.h"
	.file 5 "/usr/include/stdio.h"
	.file 6 "/usr/include/libio.h"
	.file 7 "/usr/include/x86_64-linux-gnu/bits/confname.h"
	.section	.note.GNU-stack,"",@progbits
